; Function Attrs: nounwind uwtable
define hidden range(i32 0, 2) i32 @needEnumerateSubdevices(i32 noundef %0) local_unnamed_addr #0 {
  %.b.i = load i1, ptr @alsa_inited, align 4
  br i1 %.b.i, label %.initAlsaSupport.exit_crit_edge, label %2

.initAlsaSupport.exit_crit_edge:                  ; preds = %1
  %.b1.pre = load i1, ptr @alsa_enumerate_midi_subdevices, align 4
  br label %initAlsaSupport.exit

2:                                                ; preds = %1
  store i1 true, ptr @alsa_inited, align 4
  %3 = tail call i32 @snd_lib_error_set_handler(ptr noundef nonnull @alsaDebugOutput) #9
  %4 = tail call ptr @getenv(ptr noundef nonnull @.str) #9
  %.not.i = icmp eq ptr %4, null
  br i1 %.not.i, label %10, label %5

5:                                                ; preds = %2
  %char0.i = load i8, ptr %4, align 1
  %.not7.i = icmp eq i8 %char0.i, 0
  br i1 %.not7.i, label %10, label %6

6:                                                ; preds = %5
  %7 = add i8 %char0.i, -70
  %8 = tail call i8 @llvm.fshl.i8(i8 %7, i8 %7, i8 5)
  switch i8 %8, label %9 [
    i8 4, label %10
    i8 0, label %10
    i8 5, label %10
    i8 1, label %10
  ]

9:                                                ; preds = %6
  store i1 true, ptr @alsa_enumerate_pcm_subdevices, align 4
  br label %10

10:                                               ; preds = %9, %6, %6, %6, %6, %5, %2
  store i1 true, ptr @alsa_enumerate_midi_subdevices, align 4
  br label %initAlsaSupport.exit

initAlsaSupport.exit:                             ; preds = %.initAlsaSupport.exit_crit_edge, %10
  %.b1 = phi i1 [ %.b1.pre, %.initAlsaSupport.exit_crit_edge ], [ true, %10 ]
  %.not = icmp eq i32 %0, 0
  %.b = load i1, ptr @alsa_enumerate_pcm_subdevices, align 4
  %.v = select i1 %.not, i1 %.b, i1 %.b1
  %11 = zext i1 %.v to i32
  ret i32 %11
}